target datalayout = "e-m:e-p270:32:32-p271:32:32-p272:64:64-i64:64-i128:128-f80:128-n8:16:32:64-S128"
target triple = "x86_64-pc-linux-gnu"

%struct.dRess_t = type { ptr, i64, ptr, i64, ptr, ptr, ptr, i64 }

@g_displayLevel = internal global i32 0, align 4
@stderr = external global ptr, align 8
@.str = private unnamed_addr constant [12 x i8] c"Error %i : \00", align 1
@.str.2 = private unnamed_addr constant [3 x i8] c" \0A\00", align 1
@.str.82 = private unnamed_addr constant [46 x i8] c"Error : can't free LZ4F context resource : %s\00", align 1

; Function Attrs: nounwind uwtable
define internal void @LZ4IO_freeDResources(ptr noundef byval(%struct.dRess_t) align 8 %0) #0 {
  %2 = alloca i64, align 8
  call void @llvm.lifetime.start.p0(i64 8, ptr %2) #13
  %3 = getelementptr inbounds nuw %struct.dRess_t, ptr %0, i32 0, i32 5
  %4 = load ptr, ptr %3, align 8, !tbaa !140
  %5 = call i64 @LZ4F_freeDecompressionContext(ptr noundef %4)
  store i64 %5, ptr %2, align 8, !tbaa !32
  %6 = load i64, ptr %2, align 8, !tbaa !32
  %7 = call i32 @LZ4F_isError(i64 noundef %6)
  %8 = icmp ne i32 %7, 0
  br i1 %8, label %9, label %49

9:                                                ; preds = %1
  %10 = load i32, ptr @g_displayLevel, align 4, !tbaa !9
  %11 = icmp sge i32 %10, 1
  br i1 %11, label %12, label %21

12:                                               ; preds = %9
  %13 = load ptr, ptr @stderr, align 8, !tbaa !11
  %14 = call i32 (ptr, ptr, ...) @fprintf(ptr noundef %13, ptr noundef @.str, i32 noundef 69) #13
  %15 = load i32, ptr @g_displayLevel, align 4, !tbaa !9
  %16 = icmp sge i32 %15, 4
  br i1 %16, label %17, label %20

17:                                               ; preds = %12
  %18 = load ptr, ptr @stderr, align 8, !tbaa !11
  %19 = call i32 @fflush(ptr noundef %18)
  br label %20

20:                                               ; preds = %17, %12
  br label %21

21:                                               ; preds = %20, %9
  %22 = load i32, ptr @g_displayLevel, align 4, !tbaa !9
  %23 = icmp sge i32 %22, 1
  br i1 %23, label %24, label %35

24:                                               ; preds = %21
  %25 = load ptr, ptr @stderr, align 8, !tbaa !11
  %26 = load i64, ptr %2, align 8, !tbaa !32
  %27 = call ptr @LZ4F_getErrorName(i64 noundef %26)
  %28 = call i32 (ptr, ptr, ...) @fprintf(ptr noundef %25, ptr noundef @.str.82, ptr noundef %27) #13
  %29 = load i32, ptr @g_displayLevel, align 4, !tbaa !9
  %30 = icmp sge i32 %29, 4
  br i1 %30, label %31, label %34

31:                                               ; preds = %24
  %32 = load ptr, ptr @stderr, align 8, !tbaa !11
  %33 = call i32 @fflush(ptr noundef %32)
  br label %34

34:                                               ; preds = %31, %24
  br label %35

35:                                               ; preds = %34, %21
  %36 = load i32, ptr @g_displayLevel, align 4, !tbaa !9
  %37 = icmp sge i32 %36, 1
  br i1 %37, label %38, label %47

38:                                               ; preds = %35
  %39 = load ptr, ptr @stderr, align 8, !tbaa !11
  %40 = call i32 (ptr, ptr, ...) @fprintf(ptr noundef %39, ptr noundef @.str.2) #13
  %41 = load i32, ptr @g_displayLevel, align 4, !tbaa !9
  %42 = icmp sge i32 %41, 4
  br i1 %42, label %43, label %46

43:                                               ; preds = %38
  %44 = load ptr, ptr @stderr, align 8, !tbaa !11
  %45 = call i32 @fflush(ptr noundef %44)
  br label %46

46:                                               ; preds = %43, %38
  br label %47

47:                                               ; preds = %46, %35
  %48 = call i32 @fflush(ptr noundef null)
  call void @exit(i32 noundef 69) #15
  unreachable

49:                                               ; preds = %1
  %50 = getelementptr inbounds nuw %struct.dRess_t, ptr %0, i32 0, i32 0
  %51 = load ptr, ptr %50, align 8, !tbaa !136
  call void @free(ptr noundef %51) #13
  %52 = getelementptr inbounds nuw %struct.dRess_t, ptr %0, i32 0, i32 2
  %53 = load ptr, ptr %52, align 8, !tbaa !138
  call void @free(ptr noundef %53) #13
  %54 = getelementptr inbounds nuw %struct.dRess_t, ptr %0, i32 0, i32 6
  %55 = load ptr, ptr %54, align 8, !tbaa !141
  call void @free(ptr noundef %55) #13
  call void @llvm.lifetime.end.p0(i64 8, ptr %2) #13
  ret void
}