; Function Attrs: nounwind uwtable
define internal fastcc void @LZ4IO_freeDResources(ptr noundef readonly byval(%struct.dRess_t) align 8 captures(none) %0) unnamed_addr #11 {
  %2 = getelementptr inbounds nuw i8, ptr %0, i64 40
  %3 = load ptr, ptr %2, align 8, !tbaa !132
  %4 = tail call i64 @LZ4F_freeDecompressionContext(ptr noundef %3) #24
  %5 = tail call i32 @LZ4F_isError(i64 noundef %4) #24
  %.not = icmp eq i32 %5, 0
  br i1 %.not, label %40, label %6

6:                                                ; preds = %1
  %7 = load i32, ptr @g_displayLevel, align 4, !tbaa !4
  %8 = icmp sgt i32 %7, 0
  br i1 %8, label %9, label %.thread3

9:                                                ; preds = %6
  %10 = load ptr, ptr @stderr, align 8, !tbaa !8
  %11 = tail call i32 (ptr, ptr, ...) @fprintf(ptr noundef %10, ptr noundef nonnull @.str, i32 noundef 69) #26
  %12 = load i32, ptr @g_displayLevel, align 4, !tbaa !4
  %13 = icmp sgt i32 %12, 3
  br i1 %13, label %14, label %17

14:                                               ; preds = %9
  %15 = load ptr, ptr @stderr, align 8, !tbaa !8
  %16 = tail call i32 @fflush(ptr noundef %15)
  %.pr = load i32, ptr @g_displayLevel, align 4, !tbaa !4
  br label %17

17:                                               ; preds = %9, %14
  %18 = phi i32 [ %12, %9 ], [ %.pr, %14 ]
  %19 = icmp sgt i32 %18, 0
  br i1 %19, label %20, label %.thread3

20:                                               ; preds = %17
  %21 = load ptr, ptr @stderr, align 8, !tbaa !8
  %22 = tail call ptr @LZ4F_getErrorName(i64 noundef %4) #24
  %23 = tail call i32 (ptr, ptr, ...) @fprintf(ptr noundef %21, ptr noundef nonnull @.str.82, ptr noundef %22) #26
  %24 = load i32, ptr @g_displayLevel, align 4, !tbaa !4
  %25 = icmp sgt i32 %24, 3
  br i1 %25, label %26, label %thread-pre-split

26:                                               ; preds = %20
  %27 = load ptr, ptr @stderr, align 8, !tbaa !8
  %28 = tail call i32 @fflush(ptr noundef %27)
  %.pr2.pre = load i32, ptr @g_displayLevel, align 4, !tbaa !4
  br label %thread-pre-split

thread-pre-split:                                 ; preds = %26, %20
  %29 = phi i32 [ %24, %20 ], [ %.pr2.pre, %26 ]
  %30 = icmp sgt i32 %29, 0
  br i1 %30, label %31, label %.thread3

31:                                               ; preds = %thread-pre-split
  %32 = load ptr, ptr @stderr, align 8, !tbaa !8
  %33 = tail call i64 @fwrite(ptr nonnull @.str.2, i64 2, i64 1, ptr %32) #27
  %34 = load i32, ptr @g_displayLevel, align 4, !tbaa !4
  %35 = icmp sgt i32 %34, 3
  br i1 %35, label %36, label %.thread3

36:                                               ; preds = %31
  %37 = load ptr, ptr @stderr, align 8, !tbaa !8
  %38 = tail call i32 @fflush(ptr noundef %37)
  br label %.thread3

.thread3:                                         ; preds = %17, %6, %31, %36, %thread-pre-split
  %39 = tail call i32 @fflush(ptr noundef null)
  tail call void @exit(i32 noundef 69) #28
  unreachable

40:                                               ; preds = %1
  %41 = load ptr, ptr %0, align 8, !tbaa !126
  tail call void @free(ptr noundef %41) #24
  %42 = getelementptr inbounds nuw i8, ptr %0, i64 16
  %43 = load ptr, ptr %42, align 8, !tbaa !128
  tail call void @free(ptr noundef %43) #24
  %44 = getelementptr inbounds nuw i8, ptr %0, i64 48
  %45 = load ptr, ptr %44, align 8, !tbaa !130
  tail call void @free(ptr noundef %45) #24
  ret void
}